; Function Attrs: mustprogress uwtable
define void @_ZN13sentencepiece12SelfTestDataC2EPN6google8protobuf5ArenaE(ptr noundef nonnull align 8 dereferenceable(72) initializes((0, 16)) %0, ptr noundef %1) unnamed_addr #3 align 2 personality ptr @__gxx_personality_v0 {
  %3 = getelementptr inbounds nuw i8, ptr %0, i64 8
  store ptr %1, ptr %3, align 8, !tbaa !3
  store ptr getelementptr inbounds nuw inrange(-16, 112) (i8, ptr @_ZTVN13sentencepiece12SelfTestDataE, i64 16), ptr %0, align 8, !tbaa !8
  %4 = getelementptr inbounds nuw i8, ptr %0, i64 16
  tail call void @_ZN6google8protobuf8internal12ExtensionSetC1EPNS0_5ArenaE(ptr noundef nonnull align 8 dereferenceable(24) %4, ptr noundef %1)
  %5 = getelementptr inbounds nuw i8, ptr %0, i64 40
  store ptr %1, ptr %5, align 8, !tbaa !46
  %6 = getelementptr inbounds nuw i8, ptr %0, i64 48
  tail call void @llvm.memset.p0.i64(ptr noundef nonnull align 8 dereferenceable(20) %6, i8 0, i64 20, i1 false)
  %7 = load atomic i32, ptr @scc_info_SelfTestData_sentencepiece_5fmodel_2eproto acquire, align 8
  %.not.i.i = icmp eq i32 %7, 0
  br i1 %.not.i.i, label %_ZN13sentencepiece12SelfTestData10SharedCtorEv.exit, label %8, !prof !10

8:                                                ; preds = %2
  invoke void @_ZN6google8protobuf8internal11InitSCCImplEPNS1_11SCCInfoBaseE(ptr noundef nonnull @scc_info_SelfTestData_sentencepiece_5fmodel_2eproto)
          to label %_ZN13sentencepiece12SelfTestData10SharedCtorEv.exit unwind label %9

_ZN13sentencepiece12SelfTestData10SharedCtorEv.exit: ; preds = %2, %8
  ret void

9:                                                ; preds = %8
  %10 = landingpad { ptr, i32 }
          cleanup
  tail call void @_ZN6google8protobuf16RepeatedPtrFieldIN13sentencepiece19SelfTestData_SampleEED2Ev(ptr noundef nonnull align 8 dereferenceable(24) %5) #25
  tail call void @_ZN6google8protobuf8internal12ExtensionSetD1Ev(ptr noundef nonnull align 8 dereferenceable(24) %4) #25
  resume { ptr, i32 } %10
}